target datalayout = "e-m:e-p270:32:32-p271:32:32-p272:64:64-i64:64-i128:128-f80:128-n8:16:32:64-S128"
target triple = "x86_64-pc-linux-gnu"

%struct.ec_name2nid_st = type { ptr, i32 }

; Function Attrs: nounwind uwtable
define i32 @ossl_ec_curve_nist2nid_int(ptr noundef %0) #0 {
  %2 = alloca i32, align 4
  %3 = alloca ptr, align 8
  %4 = alloca i64, align 8
  %5 = alloca i32, align 4
  store ptr %0, ptr %3, align 8, !tbaa !16
  call void @llvm.lifetime.start.p0(i64 8, ptr %4) #4
  store i64 0, ptr %4, align 8, !tbaa !7
  br label %6

6:                                                ; preds = %23, %1
  %7 = load i64, ptr %4, align 8, !tbaa !7
  %8 = icmp ult i64 %7, 15
  br i1 %8, label %9, label %26

9:                                                ; preds = %6
  %10 = load i64, ptr %4, align 8, !tbaa !7
  %11 = getelementptr inbounds nuw [15 x %struct.ec_name2nid_st], ptr @nist_curves, i64 0, i64 %10
  %12 = getelementptr inbounds nuw %struct.ec_name2nid_st, ptr %11, i32 0, i32 0
  %13 = load ptr, ptr %12, align 16, !tbaa !13
  %14 = load ptr, ptr %3, align 8, !tbaa !16
  %15 = call i32 @strcmp(ptr noundef %13, ptr noundef %14) #5
  %16 = icmp eq i32 %15, 0
  br i1 %16, label %17, label %22

17:                                               ; preds = %9
  %18 = load i64, ptr %4, align 8, !tbaa !7
  %19 = getelementptr inbounds nuw [15 x %struct.ec_name2nid_st], ptr @nist_curves, i64 0, i64 %18
  %20 = getelementptr inbounds nuw %struct.ec_name2nid_st, ptr %19, i32 0, i32 1
  %21 = load i32, ptr %20, align 8, !tbaa !9
  store i32 %21, ptr %2, align 4
  store i32 1, ptr %5, align 4
  br label %27

22:                                               ; preds = %9
  br label %23

23:                                               ; preds = %22
  %24 = load i64, ptr %4, align 8, !tbaa !7
  %25 = add i64 %24, 1
  store i64 %25, ptr %4, align 8, !tbaa !7
  br label %6, !llvm.loop !18

26:                                               ; preds = %6
  store i32 0, ptr %2, align 4
  store i32 1, ptr %5, align 4
  br label %27

27:                                               ; preds = %26, %17
  call void @llvm.lifetime.end.p0(i64 8, ptr %4) #4
  %28 = load i32, ptr %2, align 4
  ret i32 %28
}

; Function Attrs: nounwind uwtable
define i32 @ossl_ec_curve_name2nid(ptr noundef %0) #0 {
  %2 = alloca i32, align 4
  %3 = alloca ptr, align 8
  %4 = alloca i64, align 8
  %5 = alloca i32, align 4
  %6 = alloca i32, align 4
  store ptr %0, ptr %3, align 8, !tbaa !16
  call void @llvm.lifetime.start.p0(i64 8, ptr %4) #4
  call void @llvm.lifetime.start.p0(i64 4, ptr %5) #4
  %7 = load ptr, ptr %3, align 8, !tbaa !16
  %8 = icmp ne ptr %7, null
  br i1 %8, label %9, label %37

9:                                                ; preds = %1
  %10 = load ptr, ptr %3, align 8, !tbaa !16
  %11 = call i32 @ossl_ec_curve_nist2nid_int(ptr noundef %10)
  store i32 %11, ptr %5, align 4, !tbaa !3
  %12 = icmp ne i32 %11, 0
  br i1 %12, label %13, label %15

13:                                               ; preds = %9
  %14 = load i32, ptr %5, align 4, !tbaa !3
  store i32 %14, ptr %2, align 4
  store i32 1, ptr %6, align 4
  br label %38

15:                                               ; preds = %9
  store i64 0, ptr %4, align 8, !tbaa !7
  br label %16

16:                                               ; preds = %33, %15
  %17 = load i64, ptr %4, align 8, !tbaa !7
  %18 = icmp ult i64 %17, 82
  br i1 %18, label %19, label %36

19:                                               ; preds = %16
  %20 = load i64, ptr %4, align 8, !tbaa !7
  %21 = getelementptr inbounds nuw [82 x %struct.ec_name2nid_st], ptr @curve_list, i64 0, i64 %20
  %22 = getelementptr inbounds nuw %struct.ec_name2nid_st, ptr %21, i32 0, i32 0
  %23 = load ptr, ptr %22, align 16, !tbaa !13
  %24 = load ptr, ptr %3, align 8, !tbaa !16
  %25 = call i32 @OPENSSL_strcasecmp(ptr noundef %23, ptr noundef %24)
  %26 = icmp eq i32 %25, 0
  br i1 %26, label %27, label %32

27:                                               ; preds = %19
  %28 = load i64, ptr %4, align 8, !tbaa !7
  %29 = getelementptr inbounds nuw [82 x %struct.ec_name2nid_st], ptr @curve_list, i64 0, i64 %28
  %30 = getelementptr inbounds nuw %struct.ec_name2nid_st, ptr %29, i32 0, i32 1
  %31 = load i32, ptr %30, align 8, !tbaa !9
  store i32 %31, ptr %2, align 4
  store i32 1, ptr %6, align 4
  br label %38

32:                                               ; preds = %19
  br label %33

33:                                               ; preds = %32
  %34 = load i64, ptr %4, align 8, !tbaa !7
  %35 = add i64 %34, 1
  store i64 %35, ptr %4, align 8, !tbaa !7
  br label %16, !llvm.loop !17

36:                                               ; preds = %16
  br label %37

37:                                               ; preds = %36, %1
  store i32 0, ptr %2, align 4
  store i32 1, ptr %6, align 4
  br label %38

38:                                               ; preds = %37, %27, %13
  call void @llvm.lifetime.end.p0(i64 4, ptr %5) #4
  call void @llvm.lifetime.end.p0(i64 8, ptr %4) #4
  %39 = load i32, ptr %2, align 4
  ret i32 %39
}