; Function Attrs: nounwind uwtable
define i32 @ossl_ec_curve_name2nid(ptr noundef %0) local_unnamed_addr #1 {
  %.not = icmp eq ptr %0, null
  br i1 %.not, label %.loopexit, label %.preheader12

2:                                                ; preds = %.preheader12
  %3 = add nuw nsw i64 %.06.i, 1
  %exitcond.not.i = icmp eq i64 %3, 15
  br i1 %exitcond.not.i, label %.preheader.preheader, label %.preheader12, !llvm.loop !13

.preheader12:                                     ; preds = %1, %2
  %.06.i = phi i64 [ %3, %2 ], [ 0, %1 ]
  %4 = getelementptr inbounds nuw [15 x %struct.ec_name2nid_st], ptr @nist_curves, i64 0, i64 %.06.i
  %5 = load ptr, ptr %4, align 16, !tbaa !12
  %6 = tail call i32 @strcmp(ptr noundef nonnull dereferenceable(1) %5, ptr noundef nonnull readonly dereferenceable(1) %0) #5
  %7 = icmp eq i32 %6, 0
  br i1 %7, label %ossl_ec_curve_nist2nid_int.exit, label %2

ossl_ec_curve_nist2nid_int.exit:                  ; preds = %.preheader12
  %8 = getelementptr inbounds nuw i8, ptr %4, i64 8
  %9 = load i32, ptr %8, align 8, !tbaa !5
  %.not11 = icmp eq i32 %9, 0
  br i1 %.not11, label %.preheader.preheader, label %.loopexit

.preheader.preheader:                             ; preds = %2, %ossl_ec_curve_nist2nid_int.exit
  br label %.preheader

10:                                               ; preds = %.preheader
  %11 = add nuw nsw i64 %.0815, 1
  %exitcond.not = icmp eq i64 %11, 82
  br i1 %exitcond.not, label %.loopexit, label %.preheader, !llvm.loop !14

.preheader:                                       ; preds = %.preheader.preheader, %10
  %.0815 = phi i64 [ %11, %10 ], [ 0, %.preheader.preheader ]
  %12 = getelementptr inbounds nuw [82 x %struct.ec_name2nid_st], ptr @curve_list, i64 0, i64 %.0815
  %13 = load ptr, ptr %12, align 16, !tbaa !12
  %14 = tail call i32 @OPENSSL_strcasecmp(ptr noundef %13, ptr noundef nonnull %0) #6
  %15 = icmp eq i32 %14, 0
  br i1 %15, label %16, label %10

16:                                               ; preds = %.preheader
  %17 = getelementptr inbounds nuw i8, ptr %12, i64 8
  %18 = load i32, ptr %17, align 8, !tbaa !5
  br label %.loopexit

.loopexit:                                        ; preds = %10, %1, %ossl_ec_curve_nist2nid_int.exit, %16
  %.0 = phi i32 [ %18, %16 ], [ %9, %ossl_ec_curve_nist2nid_int.exit ], [ 0, %1 ], [ 0, %10 ]
  ret i32 %.0
}